target datalayout = "e-m:e-p270:32:32-p271:32:32-p272:64:64-i64:64-i128:128-f80:128-n8:16:32:64-S128"
target triple = "x86_64-pc-linux-gnu"

@the_repository = external global ptr, align 8
@the_shared_repository = internal global i32 0, align 4
@need_shared_repository_from_config = internal global i32 1, align 4
@.str.22 = private unnamed_addr constant [22 x i8] c"core.sharedrepository\00", align 1

; Function Attrs: inlinehint nounwind uwtable
define internal i32 @git_config_get_value(ptr noundef %0, ptr noundef %1) #5 {
  %3 = alloca ptr, align 8
  %4 = alloca ptr, align 8
  store ptr %0, ptr %3, align 8, !tbaa !9
  store ptr %1, ptr %4, align 8, !tbaa !54
  %5 = load ptr, ptr @the_repository, align 8, !tbaa !18
  %6 = load ptr, ptr %3, align 8, !tbaa !9
  %7 = load ptr, ptr %4, align 8, !tbaa !54
  %8 = call i32 @repo_config_get_value(ptr noundef %5, ptr noundef %6, ptr noundef %7)
  ret i32 %8
}

; Function Attrs: nounwind uwtable
define dso_local i32 @get_shared_repository() #0 {
  %1 = alloca ptr, align 8
  %2 = alloca ptr, align 8
  %3 = load i32, ptr @need_shared_repository_from_config, align 4, !tbaa !16
  %4 = icmp ne i32 %3, 0
  br i1 %4, label %5, label %14

5:                                                ; preds = %0
  call void @llvm.lifetime.start.p0(i64 8, ptr %1) #8
  store ptr @.str.22, ptr %1, align 8, !tbaa !9
  call void @llvm.lifetime.start.p0(i64 8, ptr %2) #8
  %6 = load ptr, ptr %1, align 8, !tbaa !9
  %7 = call i32 @git_config_get_value(ptr noundef %6, ptr noundef %2)
  %8 = icmp ne i32 %7, 0
  br i1 %8, label %13, label %9

9:                                                ; preds = %5
  %10 = load ptr, ptr %1, align 8, !tbaa !9
  %11 = load ptr, ptr %2, align 8, !tbaa !9
  %12 = call i32 @git_config_perm(ptr noundef %10, ptr noundef %11)
  store i32 %12, ptr @the_shared_repository, align 4, !tbaa !16
  br label %13

13:                                               ; preds = %9, %5
  store i32 0, ptr @need_shared_repository_from_config, align 4, !tbaa !16
  call void @llvm.lifetime.end.p0(i64 8, ptr %2) #8
  call void @llvm.lifetime.end.p0(i64 8, ptr %1) #8
  br label %14

14:                                               ; preds = %13, %0
  %15 = load i32, ptr @the_shared_repository, align 4, !tbaa !16
  ret i32 %15
}