; Function Attrs: nounwind uwtable
define dso_local i32 @get_shared_repository() local_unnamed_addr #0 {
  %1 = alloca ptr, align 8
  %.b = load i1, ptr @need_shared_repository_from_config, align 4
  br i1 %.b, label %9, label %2

2:                                                ; preds = %0
  call void @llvm.lifetime.start.p0(i64 8, ptr nonnull %1) #14
  %3 = load ptr, ptr @the_repository, align 8, !tbaa !16
  %4 = call i32 @repo_config_get_value(ptr noundef %3, ptr noundef nonnull @.str.22, ptr noundef nonnull %1) #14
  %.not = icmp eq i32 %4, 0
  br i1 %.not, label %5, label %8

5:                                                ; preds = %2
  %6 = load ptr, ptr %1, align 8, !tbaa !12
  %7 = call i32 @git_config_perm(ptr noundef nonnull @.str.22, ptr noundef %6) #14
  store i32 %7, ptr @the_shared_repository, align 4, !tbaa !14
  br label %8

8:                                                ; preds = %5, %2
  store i1 true, ptr @need_shared_repository_from_config, align 4
  call void @llvm.lifetime.end.p0(i64 8, ptr nonnull %1) #14
  br label %9

9:                                                ; preds = %8, %0
  %10 = load i32, ptr @the_shared_repository, align 4, !tbaa !14
  ret i32 %10
}